target datalayout = "e-m:e-p270:32:32-p271:32:32-p272:64:64-i64:64-i128:128-f80:128-n8:16:32:64-S128"
target triple = "x86_64-pc-linux-gnu"

; Function Attrs: nounwind uwtable
define internal void @add_obmc8_c(ptr noundef %0, ptr noundef %1, i32 noundef %2, ptr noundef %3, i32 noundef %4) #1 {
  %6 = alloca ptr, align 8
  %7 = alloca ptr, align 8
  %8 = alloca i32, align 4
  %9 = alloca ptr, align 8
  %10 = alloca i32, align 4
  %11 = alloca i32, align 4
  store ptr %0, ptr %6, align 8, !tbaa !21
  store ptr %1, ptr %7, align 8, !tbaa !11
  store i32 %2, ptr %8, align 4, !tbaa !13
  store ptr %3, ptr %9, align 8, !tbaa !11
  store i32 %4, ptr %10, align 4, !tbaa !13
  call void @llvm.lifetime.start.p0(i64 4, ptr %11) #5
  br label %12

12:                                               ; preds = %69, %5
  %13 = load i32, ptr %10, align 4, !tbaa !13
  %14 = add nsw i32 %13, -1
  store i32 %14, ptr %10, align 4, !tbaa !13
  %15 = icmp ne i32 %13, 0
  br i1 %15, label %16, label %80

16:                                               ; preds = %12
  store i32 0, ptr %11, align 4, !tbaa !13
  br label %17

17:                                               ; preds = %66, %16
  %18 = load i32, ptr %11, align 4, !tbaa !13
  %19 = icmp slt i32 %18, 8
  br i1 %19, label %20, label %69

20:                                               ; preds = %17
  %21 = load ptr, ptr %7, align 8, !tbaa !11
  %22 = load i32, ptr %11, align 4, !tbaa !13
  %23 = sext i32 %22 to i64
  %24 = getelementptr inbounds i8, ptr %21, i64 %23
  %25 = load i8, ptr %24, align 1, !tbaa !15
  %26 = zext i8 %25 to i32
  %27 = load ptr, ptr %9, align 8, !tbaa !11
  %28 = load i32, ptr %11, align 4, !tbaa !13
  %29 = sext i32 %28 to i64
  %30 = getelementptr inbounds i8, ptr %27, i64 %29
  %31 = load i8, ptr %30, align 1, !tbaa !15
  %32 = zext i8 %31 to i32
  %33 = mul nsw i32 %26, %32
  %34 = load ptr, ptr %6, align 8, !tbaa !21
  %35 = load i32, ptr %11, align 4, !tbaa !13
  %36 = sext i32 %35 to i64
  %37 = getelementptr inbounds i16, ptr %34, i64 %36
  %38 = load i16, ptr %37, align 2, !tbaa !23
  %39 = zext i16 %38 to i32
  %40 = add nsw i32 %39, %33
  %41 = trunc i32 %40 to i16
  store i16 %41, ptr %37, align 2, !tbaa !23
  %42 = load ptr, ptr %7, align 8, !tbaa !11
  %43 = load i32, ptr %11, align 4, !tbaa !13
  %44 = add nsw i32 %43, 1
  %45 = sext i32 %44 to i64
  %46 = getelementptr inbounds i8, ptr %42, i64 %45
  %47 = load i8, ptr %46, align 1, !tbaa !15
  %48 = zext i8 %47 to i32
  %49 = load ptr, ptr %9, align 8, !tbaa !11
  %50 = load i32, ptr %11, align 4, !tbaa !13
  %51 = add nsw i32 %50, 1
  %52 = sext i32 %51 to i64
  %53 = getelementptr inbounds i8, ptr %49, i64 %52
  %54 = load i8, ptr %53, align 1, !tbaa !15
  %55 = zext i8 %54 to i32
  %56 = mul nsw i32 %48, %55
  %57 = load ptr, ptr %6, align 8, !tbaa !21
  %58 = load i32, ptr %11, align 4, !tbaa !13
  %59 = add nsw i32 %58, 1
  %60 = sext i32 %59 to i64
  %61 = getelementptr inbounds i16, ptr %57, i64 %60
  %62 = load i16, ptr %61, align 2, !tbaa !23
  %63 = zext i16 %62 to i32
  %64 = add nsw i32 %63, %56
  %65 = trunc i32 %64 to i16
  store i16 %65, ptr %61, align 2, !tbaa !23
  br label %66

66:                                               ; preds = %20
  %67 = load i32, ptr %11, align 4, !tbaa !13
  %68 = add nsw i32 %67, 2
  store i32 %68, ptr %11, align 4, !tbaa !13
  br label %17, !llvm.loop !35

69:                                               ; preds = %17
  %70 = load i32, ptr %8, align 4, !tbaa !13
  %71 = load ptr, ptr %6, align 8, !tbaa !21
  %72 = sext i32 %70 to i64
  %73 = getelementptr inbounds i16, ptr %71, i64 %72
  store ptr %73, ptr %6, align 8, !tbaa !21
  %74 = load i32, ptr %8, align 4, !tbaa !13
  %75 = load ptr, ptr %7, align 8, !tbaa !11
  %76 = sext i32 %74 to i64
  %77 = getelementptr inbounds i8, ptr %75, i64 %76
  store ptr %77, ptr %7, align 8, !tbaa !11
  %78 = load ptr, ptr %9, align 8, !tbaa !11
  %79 = getelementptr inbounds i8, ptr %78, i64 32
  store ptr %79, ptr %9, align 8, !tbaa !11
  br label %12, !llvm.loop !36

80:                                               ; preds = %12
  call void @llvm.lifetime.end.p0(i64 4, ptr %11) #5
  ret void
}